target datalayout = "e-m:e-p270:32:32-p271:32:32-p272:64:64-i64:64-i128:128-f80:128-n8:16:32:64-S128"
target triple = "x86_64-pc-linux-gnu"

%struct.evp_pkey_asn1_method_st = type { i32, i32, i64, ptr, ptr, ptr, ptr, ptr, ptr, ptr, ptr, ptr, ptr, ptr, ptr, ptr, ptr, ptr, ptr, ptr, ptr, ptr, ptr, ptr, ptr, ptr, ptr, ptr, ptr, ptr, ptr, ptr, ptr, ptr, ptr, ptr, ptr, ptr, ptr, ptr, ptr }
%struct.dh_st = type { i32, i32, %struct.ffc_params_st, i32, ptr, ptr, i32, ptr, %struct.CRYPTO_REF_COUNT, %struct.crypto_ex_data_st, ptr, ptr, ptr, ptr, i64 }
%struct.ffc_params_st = type { ptr, ptr, ptr, ptr, ptr, i64, i32, i32, i32, i32, i32, ptr, ptr, i32 }
%struct.CRYPTO_REF_COUNT = type { i32 }
%struct.crypto_ex_data_st = type { ptr, ptr }
%struct.asn1_string_st = type { i32, i32, ptr, i64 }
%struct.evp_pkey_st = type { i32, i32, ptr, ptr, ptr, %union.legacy_pkey_st, %union.legacy_pkey_st, %struct.CRYPTO_REF_COUNT, ptr, ptr, i32, i8, %struct.crypto_ex_data_st, ptr, ptr, i64, ptr, i64, %struct.anon }
%union.legacy_pkey_st = type { ptr }
%struct.anon = type { i32, i32, i32 }

@.str.11 = private unnamed_addr constant [32 x i8] c"../openssl/crypto/dh/dh_ameth.c\00", align 1
@__func__.dh_pub_decode = private unnamed_addr constant [14 x i8] c"dh_pub_decode\00", align 1

; Function Attrs: nounwind uwtable
define internal ptr @d2i_dhp(ptr noundef %0, ptr noundef %1, i64 noundef %2) #0 {
  %4 = alloca ptr, align 8
  %5 = alloca ptr, align 8
  %6 = alloca i64, align 8
  %7 = alloca ptr, align 8
  %8 = alloca i32, align 4
  store ptr %0, ptr %4, align 8, !tbaa !32
  store ptr %1, ptr %5, align 8, !tbaa !59
  store i64 %2, ptr %6, align 8, !tbaa !62
  call void @llvm.lifetime.start.p0(i64 8, ptr %7) #4
  store ptr null, ptr %7, align 8, !tbaa !3
  call void @llvm.lifetime.start.p0(i64 4, ptr %8) #4
  %9 = load ptr, ptr %4, align 8, !tbaa !32
  %10 = getelementptr inbounds nuw %struct.evp_pkey_st, ptr %9, i32 0, i32 2
  %11 = load ptr, ptr %10, align 8, !tbaa !44
  %12 = icmp eq ptr %11, @ossl_dhx_asn1_meth
  %13 = zext i1 %12 to i32
  store i32 %13, ptr %8, align 4, !tbaa !8
  %14 = load i32, ptr %8, align 4, !tbaa !8
  %15 = icmp ne i32 %14, 0
  br i1 %15, label %16, label %20

16:                                               ; preds = %3
  %17 = load ptr, ptr %5, align 8, !tbaa !59
  %18 = load i64, ptr %6, align 8, !tbaa !62
  %19 = call ptr @d2i_DHxparams(ptr noundef null, ptr noundef %17, i64 noundef %18)
  store ptr %19, ptr %7, align 8, !tbaa !3
  br label %24

20:                                               ; preds = %3
  %21 = load ptr, ptr %5, align 8, !tbaa !59
  %22 = load i64, ptr %6, align 8, !tbaa !62
  %23 = call ptr @d2i_DHparams(ptr noundef null, ptr noundef %21, i64 noundef %22)
  store ptr %23, ptr %7, align 8, !tbaa !3
  br label %24

24:                                               ; preds = %20, %16
  %25 = load ptr, ptr %7, align 8, !tbaa !3
  call void @llvm.lifetime.end.p0(i64 4, ptr %8) #4
  call void @llvm.lifetime.end.p0(i64 8, ptr %7) #4
  ret ptr %25
}

; Function Attrs: nounwind uwtable
define internal i32 @dh_pub_decode(ptr noundef %0, ptr noundef %1) #0 {
  %3 = alloca i32, align 4
  %4 = alloca ptr, align 8
  %5 = alloca ptr, align 8
  %6 = alloca ptr, align 8
  %7 = alloca ptr, align 8
  %8 = alloca i32, align 4
  %9 = alloca i32, align 4
  %10 = alloca i32, align 4
  %11 = alloca ptr, align 8
  %12 = alloca ptr, align 8
  %13 = alloca ptr, align 8
  %14 = alloca ptr, align 8
  %15 = alloca ptr, align 8
  %16 = alloca i32, align 4
  store ptr %0, ptr %4, align 8, !tbaa !32
  store ptr %1, ptr %5, align 8, !tbaa !34
  call void @llvm.lifetime.start.p0(i64 8, ptr %6) #4
  call void @llvm.lifetime.start.p0(i64 8, ptr %7) #4
  call void @llvm.lifetime.start.p0(i64 4, ptr %8) #4
  call void @llvm.lifetime.start.p0(i64 4, ptr %9) #4
  call void @llvm.lifetime.start.p0(i64 4, ptr %10) #4
  call void @llvm.lifetime.start.p0(i64 8, ptr %11) #4
  call void @llvm.lifetime.start.p0(i64 8, ptr %12) #4
  call void @llvm.lifetime.start.p0(i64 8, ptr %13) #4
  call void @llvm.lifetime.start.p0(i64 8, ptr %14) #4
  store ptr null, ptr %14, align 8, !tbaa !36
  call void @llvm.lifetime.start.p0(i64 8, ptr %15) #4
  store ptr null, ptr %15, align 8, !tbaa !3
  %17 = load ptr, ptr %5, align 8, !tbaa !34
  %18 = call i32 @X509_PUBKEY_get0_param(ptr noundef null, ptr noundef %6, ptr noundef %8, ptr noundef %13, ptr noundef %17)
  %19 = icmp ne i32 %18, 0
  br i1 %19, label %21, label %20

20:                                               ; preds = %2
  store i32 0, ptr %3, align 4
  store i32 1, ptr %16, align 4
  br label %66

21:                                               ; preds = %2
  %22 = load ptr, ptr %13, align 8, !tbaa !38
  call void @X509_ALGOR_get0(ptr noundef null, ptr noundef %10, ptr noundef %11, ptr noundef %22)
  %23 = load i32, ptr %10, align 4, !tbaa !8
  %24 = icmp ne i32 %23, 16
  br i1 %24, label %25, label %26

25:                                               ; preds = %21
  call void @ERR_new()
  call void @ERR_set_debug(ptr noundef @.str.11, i32 noundef 77, ptr noundef @__func__.dh_pub_decode)
  call void (i32, i32, ptr, ...) @ERR_set_error(i32 noundef 5, i32 noundef 105, ptr noundef null)
  br label %63

26:                                               ; preds = %21
  %27 = load ptr, ptr %11, align 8, !tbaa !40
  store ptr %27, ptr %12, align 8, !tbaa !36
  %28 = load ptr, ptr %12, align 8, !tbaa !36
  %29 = getelementptr inbounds nuw %struct.asn1_string_st, ptr %28, i32 0, i32 2
  %30 = load ptr, ptr %29, align 8, !tbaa !41
  store ptr %30, ptr %7, align 8, !tbaa !27
  %31 = load ptr, ptr %12, align 8, !tbaa !36
  %32 = getelementptr inbounds nuw %struct.asn1_string_st, ptr %31, i32 0, i32 0
  %33 = load i32, ptr %32, align 8, !tbaa !43
  store i32 %33, ptr %9, align 4, !tbaa !8
  %34 = load ptr, ptr %4, align 8, !tbaa !32
  %35 = load i32, ptr %9, align 4, !tbaa !8
  %36 = sext i32 %35 to i64
  %37 = call ptr @d2i_dhp(ptr noundef %34, ptr noundef %7, i64 noundef %36)
  store ptr %37, ptr %15, align 8, !tbaa !3
  %38 = icmp eq ptr %37, null
  br i1 %38, label %39, label %40

39:                                               ; preds = %26
  call void @ERR_new()
  call void @ERR_set_debug(ptr noundef @.str.11, i32 noundef 86, ptr noundef @__func__.dh_pub_decode)
  call void (i32, i32, ptr, ...) @ERR_set_error(i32 noundef 5, i32 noundef 104, ptr noundef null)
  br label %63

40:                                               ; preds = %26
  %41 = load i32, ptr %8, align 4, !tbaa !8
  %42 = sext i32 %41 to i64
  %43 = call ptr @d2i_ASN1_INTEGER(ptr noundef null, ptr noundef %6, i64 noundef %42)
  store ptr %43, ptr %14, align 8, !tbaa !36
  %44 = icmp eq ptr %43, null
  br i1 %44, label %45, label %46

45:                                               ; preds = %40
  call void @ERR_new()
  call void @ERR_set_debug(ptr noundef @.str.11, i32 noundef 91, ptr noundef @__func__.dh_pub_decode)
  call void (i32, i32, ptr, ...) @ERR_set_error(i32 noundef 5, i32 noundef 104, ptr noundef null)
  br label %63

46:                                               ; preds = %40
  %47 = load ptr, ptr %14, align 8, !tbaa !36
  %48 = call ptr @ASN1_INTEGER_to_BN(ptr noundef %47, ptr noundef null)
  %49 = load ptr, ptr %15, align 8, !tbaa !3
  %50 = getelementptr inbounds nuw %struct.dh_st, ptr %49, i32 0, i32 4
  store ptr %48, ptr %50, align 8, !tbaa !30
  %51 = icmp eq ptr %48, null
  br i1 %51, label %52, label %53

52:                                               ; preds = %46
  call void @ERR_new()
  call void @ERR_set_debug(ptr noundef @.str.11, i32 noundef 97, ptr noundef @__func__.dh_pub_decode)
  call void (i32, i32, ptr, ...) @ERR_set_error(i32 noundef 5, i32 noundef 109, ptr noundef null)
  br label %63

53:                                               ; preds = %46
  %54 = load ptr, ptr %14, align 8, !tbaa !36
  call void @ASN1_INTEGER_free(ptr noundef %54)
  %55 = load ptr, ptr %4, align 8, !tbaa !32
  %56 = load ptr, ptr %4, align 8, !tbaa !32
  %57 = getelementptr inbounds nuw %struct.evp_pkey_st, ptr %56, i32 0, i32 2
  %58 = load ptr, ptr %57, align 8, !tbaa !44
  %59 = getelementptr inbounds nuw %struct.evp_pkey_asn1_method_st, ptr %58, i32 0, i32 0
  %60 = load i32, ptr %59, align 8, !tbaa !51
  %61 = load ptr, ptr %15, align 8, !tbaa !3
  %62 = call i32 @EVP_PKEY_assign(ptr noundef %55, i32 noundef %60, ptr noundef %61)
  store i32 1, ptr %3, align 4
  store i32 1, ptr %16, align 4
  br label %66

63:                                               ; preds = %52, %45, %39, %25
  %64 = load ptr, ptr %14, align 8, !tbaa !36
  call void @ASN1_INTEGER_free(ptr noundef %64)
  %65 = load ptr, ptr %15, align 8, !tbaa !3
  call void @DH_free(ptr noundef %65)
  store i32 0, ptr %3, align 4
  store i32 1, ptr %16, align 4
  br label %66

66:                                               ; preds = %63, %53, %20
  call void @llvm.lifetime.end.p0(i64 8, ptr %15) #4
  call void @llvm.lifetime.end.p0(i64 8, ptr %14) #4
  call void @llvm.lifetime.end.p0(i64 8, ptr %13) #4
  call void @llvm.lifetime.end.p0(i64 8, ptr %12) #4
  call void @llvm.lifetime.end.p0(i64 8, ptr %11) #4
  call void @llvm.lifetime.end.p0(i64 4, ptr %10) #4
  call void @llvm.lifetime.end.p0(i64 4, ptr %9) #4
  call void @llvm.lifetime.end.p0(i64 4, ptr %8) #4
  call void @llvm.lifetime.end.p0(i64 8, ptr %7) #4
  call void @llvm.lifetime.end.p0(i64 8, ptr %6) #4
  %67 = load i32, ptr %3, align 4
  ret i32 %67
}