; Function Attrs: nounwind uwtable
define internal range(i32 0, 2) i32 @dh_pub_decode(ptr noundef %0, ptr noundef %1) #0 {
  %3 = alloca ptr, align 8
  %4 = alloca ptr, align 8
  %5 = alloca i32, align 4
  %6 = alloca i32, align 4
  %7 = alloca ptr, align 8
  %8 = alloca ptr, align 8
  call void @llvm.lifetime.start.p0(i64 8, ptr nonnull %3) #5
  call void @llvm.lifetime.start.p0(i64 8, ptr nonnull %4) #5
  call void @llvm.lifetime.start.p0(i64 4, ptr nonnull %5) #5
  call void @llvm.lifetime.start.p0(i64 4, ptr nonnull %6) #5
  call void @llvm.lifetime.start.p0(i64 8, ptr nonnull %7) #5
  call void @llvm.lifetime.start.p0(i64 8, ptr nonnull %8) #5
  %9 = call i32 @X509_PUBKEY_get0_param(ptr noundef null, ptr noundef nonnull %3, ptr noundef nonnull %5, ptr noundef nonnull %8, ptr noundef %1) #5
  %.not = icmp eq i32 %9, 0
  br i1 %.not, label %40, label %10

10:                                               ; preds = %2
  %11 = load ptr, ptr %8, align 8, !tbaa !25
  call void @X509_ALGOR_get0(ptr noundef null, ptr noundef nonnull %6, ptr noundef nonnull %7, ptr noundef %11) #5
  %12 = load i32, ptr %6, align 4, !tbaa !27
  %.not18 = icmp eq i32 %12, 16
  br i1 %.not18, label %13, label %39

13:                                               ; preds = %10
  %14 = load ptr, ptr %7, align 8, !tbaa !28
  %15 = getelementptr inbounds nuw i8, ptr %14, i64 8
  %16 = load ptr, ptr %15, align 8, !tbaa !29
  store ptr %16, ptr %4, align 8, !tbaa !31
  %17 = load i32, ptr %14, align 8, !tbaa !32
  %18 = sext i32 %17 to i64
  %19 = getelementptr i8, ptr %0, i64 8
  %.val = load ptr, ptr %19, align 8, !tbaa !33
  %20 = icmp eq ptr %.val, @ossl_dhx_asn1_meth
  br i1 %20, label %21, label %23

21:                                               ; preds = %13
  %22 = call ptr @d2i_DHxparams(ptr noundef null, ptr noundef nonnull %4, i64 noundef range(i64 -2147483648, 2147483648) %18) #5
  br label %d2i_dhp.exit

23:                                               ; preds = %13
  %24 = call ptr @d2i_DHparams(ptr noundef null, ptr noundef nonnull %4, i64 noundef range(i64 -2147483648, 2147483648) %18) #5
  br label %d2i_dhp.exit

d2i_dhp.exit:                                     ; preds = %21, %23
  %.0.i = phi ptr [ %22, %21 ], [ %24, %23 ]
  %25 = icmp eq ptr %.0.i, null
  br i1 %25, label %39, label %26

26:                                               ; preds = %d2i_dhp.exit
  %27 = load i32, ptr %5, align 4, !tbaa !27
  %28 = sext i32 %27 to i64
  %29 = call ptr @d2i_ASN1_INTEGER(ptr noundef null, ptr noundef nonnull %3, i64 noundef %28) #5
  %30 = icmp eq ptr %29, null
  br i1 %30, label %39, label %31

31:                                               ; preds = %26
  %32 = call ptr @ASN1_INTEGER_to_BN(ptr noundef nonnull %29, ptr noundef null) #5
  %33 = getelementptr inbounds nuw i8, ptr %.0.i, i64 112
  store ptr %32, ptr %33, align 8, !tbaa !23
  %34 = icmp eq ptr %32, null
  br i1 %34, label %39, label %35

35:                                               ; preds = %31
  call void @ASN1_INTEGER_free(ptr noundef nonnull %29) #5
  %36 = load ptr, ptr %19, align 8, !tbaa !33
  %37 = load i32, ptr %36, align 8, !tbaa !40
  %38 = call i32 @EVP_PKEY_assign(ptr noundef nonnull %0, i32 noundef %37, ptr noundef nonnull %.0.i) #5
  br label %40

39:                                               ; preds = %31, %26, %d2i_dhp.exit, %10
  %.sink19 = phi i32 [ 77, %10 ], [ 86, %d2i_dhp.exit ], [ 91, %26 ], [ 97, %31 ]
  %.sink = phi i32 [ 105, %10 ], [ 104, %d2i_dhp.exit ], [ 104, %26 ], [ 109, %31 ]
  %.013 = phi ptr [ null, %10 ], [ null, %d2i_dhp.exit ], [ null, %26 ], [ %29, %31 ]
  %.0 = phi ptr [ null, %10 ], [ null, %d2i_dhp.exit ], [ %.0.i, %26 ], [ %.0.i, %31 ]
  call void @ERR_new() #5
  call void @ERR_set_debug(ptr noundef nonnull @.str.11, i32 noundef %.sink19, ptr noundef nonnull @__func__.dh_pub_decode) #5
  call void (i32, i32, ptr, ...) @ERR_set_error(i32 noundef 5, i32 noundef %.sink, ptr noundef null) #5
  call void @ASN1_INTEGER_free(ptr noundef %.013) #5
  call void @DH_free(ptr noundef %.0) #5
  br label %40

40:                                               ; preds = %2, %39, %35
  %.014 = phi i32 [ 0, %39 ], [ 1, %35 ], [ 0, %2 ]
  call void @llvm.lifetime.end.p0(i64 8, ptr nonnull %8) #5
  call void @llvm.lifetime.end.p0(i64 8, ptr nonnull %7) #5
  call void @llvm.lifetime.end.p0(i64 4, ptr nonnull %6) #5
  call void @llvm.lifetime.end.p0(i64 4, ptr nonnull %5) #5
  call void @llvm.lifetime.end.p0(i64 8, ptr nonnull %4) #5
  call void @llvm.lifetime.end.p0(i64 8, ptr nonnull %3) #5
  ret i32 %.014
}